(lp1
(i__main__
Pull
p2
(dp3
S'title'
p4
S'Fix vers.cpp target'
p5
sS'idNum'
p6
S'72939478'
p7
sS'number'
p8
S'905'
p9
sS'label'
p10
S'OpenZWave:master'
p11
sS'repo'
p12
I32202720
sS'merge'
p13
S'True'
p14
sS'state'
p15
S'closed'
p16
sS'result'
p17
S'Accepted'
p18
sba(i__main__
Pull
p19
(dp20
g4
S'add vision zp3111 multisensor'
p21
sg6
S'72797638'
p22
sg8
S'904'
p23
sg10
S'OpenZWave:master'
p24
sg12
I32202720
sg13
g14
sg15
S'closed'
p25
sg17
g18
sba(i__main__
Pull
p26
(dp27
g4
S'Jeedom PR MERGE CONF'
p28
sg6
S'72150355'
p29
sg8
S'901'
p30
sg10
S'OpenZWave:master'
p31
sg12
I32202720
sg13
g14
sg15
S'closed'
p32
sg17
g18
sba(i__main__
Pull
p33
(dp34
g4
S'Ensure correct git repository path'
p35
sg6
S'71870541'
p36
sg8
S'899'
p37
sg10
S'OpenZWave:master'
p38
sg12
I32202720
sg13
g14
sg15
S'closed'
p39
sg17
g18
sba(i__main__
Pull
p40
(dp41
g4
S'added support for qubino flush shutter dc'
p42
sg6
S'71826035'
p43
sg8
S'898'
p44
sg10
S'OpenZWave:master'
p45
sg12
I32202720
sg13
S'False'
p46
sg15
S'closed'
p47
sg17
g18
sba(i__main__
Pull
p48
(dp49
g4
S'Added support for Qubino flush shutter DC'
p50
sg6
S'71825552'
p51
sg8
S'897'
p52
sg10
S'OpenZWave:master'
p53
sg12
I32202720
sg13
g46
sg15
S'closed'
p54
sg17
g18
sba(i__main__
Pull
p55
(dp56
g4
S'Build project vs2013'
p57
sg6
S'71330647'
p58
sg8
S'893'
p59
sg10
S'OpenZWave:master'
p60
sg12
I32202720
sg13
g46
sg15
S'open'
p61
sg17
g18
sba(i__main__
Pull
p62
(dp63
g4
S'Change exception preprocessor definition'
p64
sg6
S'71164397'
p65
sg8
S'891'
p66
sg10
S'OpenZWave:master'
p67
sg12
I32202720
sg13
g46
sg15
S'closed'
p68
sg17
g18
sba(i__main__
Pull
p69
(dp70
g4
S'Enabled support for Aeotec Illuminator G2 and Micro Switch 2nd edition'
p71
sg6
S'71036580'
p72
sg8
S'890'
p73
sg10
S'OpenZWave:master'
p74
sg12
I32202720
sg13
g46
sg15
S'closed'
p75
sg17
g18
sba(i__main__
Pull
p76
(dp77
g4
S'Remove endpoint mapping from the Qubino ZMNHBDx.xml defiition for the'
p78
sg6
S'70771104'
p79
sg8
S'889'
p80
sg10
S'OpenZWave:master'
p81
sg12
I32202720
sg13
g46
sg15
S'closed'
p82
sg17
g18
sba(i__main__
Pull
p83
(dp84
g4
S'Added Fibaro FGMS001 2016 USA version'
p85
sg6
S'70454452'
p86
sg8
S'888'
p87
sg10
S'OpenZWave:master'
p88
sg12
I32202720
sg13
g14
sg15
S'closed'
p89
sg17
g18
sba(i__main__
Pull
p90
(dp91
g4
S'Log _instance as well as node for switches and meters (Fix for issue #883)'
p92
sg6
S'70108070'
p93
sg8
S'884'
p94
sg10
S'OpenZWave:master'
p95
sg12
I32202720
sg13
g46
sg15
S'open'
p96
sg17
g18
sba(i__main__
Pull
p97
(dp98
g4
S'Fixed setting Thermostat Clock (Minute value was mixed with Hour)'
p99
sg6
S'68813631'
p100
sg8
S'879'
p101
sg10
S'OpenZWave:master'
p102
sg12
I32202720
sg13
g14
sg15
S'closed'
p103
sg17
g18
sba(i__main__
Pull
p104
(dp105
g4
S'Add support for FGK101 with type 0701 / id 1001'
p106
sg6
S'68530321'
p107
sg8
S'877'
p108
sg10
S'OpenZWave:master'
p109
sg12
I32202720
sg13
g14
sg15
S'closed'
p110
sg17
g18
sba(i__main__
Pull
p111
(dp112
g4
S'fixed Botton typo'
p113
sg6
S'68475387'
p114
sg8
S'876'
p115
sg10
S'OpenZWave:master'
p116
sg12
I32202720
sg13
g14
sg15
S'closed'
p117
sg17
g18
sba(i__main__
Pull
p118
(dp119
g4
S'Pr/864'
p120
sg6
S'68347901'
p121
sg8
S'875'
p122
sg10
S'OpenZWave:master'
p123
sg12
I32202720
sg13
g14
sg15
S'closed'
p124
sg17
g18
sba(i__main__
Pull
p125
(dp126
g4
S'Device Support: Domitech Smart LED Light Bulb ZB22UK'
p127
sg6
S'68335258'
p128
sg8
S'874'
p129
sg10
S'OpenZWave:master'
p130
sg12
I32202720
sg13
g14
sg15
S'closed'
p131
sg17
g18
sba(i__main__
Pull
p132
(dp133
g4
S'Fix libopenzwave.pc when using custom values'
p134
sg6
S'68010652'
p135
sg8
S'873'
p136
sg10
S'OpenZWave:master'
p137
sg12
I32202720
sg13
g14
sg15
S'closed'
p138
sg17
g18
sba(i__main__
Pull
p139
(dp140
g4
S'Fix warning on wcsdup implicit declaration'
p141
sg6
S'67675896'
p142
sg8
S'871'
p143
sg10
S'OpenZWave:master'
p144
sg12
I32202720
sg13
g14
sg15
S'closed'
p145
sg17
g18
sba(i__main__
Pull
p146
(dp147
g4
S'Added Popp KFOB to Popp besides Z-Wave.Me'
p148
sg6
S'67644722'
p149
sg8
S'870'
p150
sg10
S'OpenZWave:master'
p151
sg12
I32202720
sg13
g14
sg15
S'closed'
p152
sg17
g18
sba(i__main__
Pull
p153
(dp154
g4
S'Add RaZBerry Pi board ID=0002 (Same as ID=0001)'
p155
sg6
S'67631888'
p156
sg8
S'869'
p157
sg10
S'OpenZWave:master'
p158
sg12
I32202720
sg13
g14
sg15
S'closed'
p159
sg17
g18
sba(i__main__
Pull
p160
(dp161
g4
S'Fix CPPFLAGS in Makefiles'
p162
sg6
S'67525635'
p163
sg8
S'866'
p164
sg10
S'OpenZWave:master'
p165
sg12
I32202720
sg13
g46
sg15
S'closed'
p166
sg17
g18
sba(i__main__
Pull
p167
(dp168
g4
S'Add 2gig CT50e thermostat with USNAP module RTZW-01'
p169
sg6
S'67304811'
p170
sg8
S'864'
p171
sg10
S'OpenZWave:master'
p172
sg12
I32202720
sg13
g14
sg15
S'closed'
p173
sg17
g18
sba(i__main__
Pull
p174
(dp175
g4
S'fix for issue 848'
p176
sg6
S'67039822'
p177
sg8
S'861'
p178
sg10
S'OpenZWave:master'
p179
sg12
I32202720
sg13
g14
sg15
S'closed'
p180
sg17
g18
sba(i__main__
Pull
p181
(dp182
g4
S'Issue 848'
p183
sg6
S'67037565'
p184
sg8
S'860'
p185
sg10
S'OpenZWave:master'
p186
sg12
I32202720
sg13
g46
sg15
S'closed'
p187
sg17
g18
sba(i__main__
Pull
p188
(dp189
g4
S'fix for issue 847'
p190
sg6
S'66946257'
p191
sg8
S'858'
p192
sg10
S'OpenZWave:master'
p193
sg12
I32202720
sg13
g14
sg15
S'closed'
p194
sg17
g18
sba(i__main__
Pull
p195
(dp196
g4
S'New cc'
p197
sg6
S'66891390'
p198
sg8
S'856'
p199
sg10
S'OpenZWave:master'
p200
sg12
I32202720
sg13
g46
sg15
S'closed'
p201
sg17
g18
sba(i__main__
Pull
p202
(dp203
g4
S'Print the names for nodes and values that have beed detected in the network.'
p204
sg6
S'66871427'
p205
sg8
S'855'
p206
sg10
S'OpenZWave:master'
p207
sg12
I32202720
sg13
g14
sg15
S'closed'
p208
sg17
g18
sba(i__main__
Pull
p209
(dp210
g4
S'fix segment fault when getting zero size user code packet in openzwave library'
p211
sg6
S'66398732'
p212
sg8
S'852'
p213
sg10
S'OpenZWave:master'
p214
sg12
I32202720
sg13
g46
sg15
S'closed'
p215
sg17
g18
sba(i__main__
Pull
p216
(dp217
g4
S'Update support.mk to support building with bitbake environment'
p218
sg6
S'66386620'
p219
sg8
S'850'
p220
sg10
S'OpenZWave:master'
p221
sg12
I32202720
sg13
g46
sg15
S'closed'
p222
sg17
g18
sba(i__main__
Pull
p223
(dp224
g4
S'Update Makefile to support building with bitbake environment'
p225
sg6
S'66386542'
p226
sg8
S'849'
p227
sg10
S'OpenZWave:master'
p228
sg12
I32202720
sg13
g46
sg15
S'closed'
p229
sg17
g18
sba(i__main__
Pull
p230
(dp231
g4
S'Fix rpm spec file'
p232
sg6
S'66220538'
p233
sg8
S'844'
p234
sg10
S'OpenZWave:master'
p235
sg12
I32202720
sg13
g46
sg15
S'closed'
p236
sg17
g18
sba(i__main__
Pull
p237
(dp238
g4
S'Update manufacturer_specific.xml for add GR-105N'
p239
sg6
S'66116410'
p240
sg8
S'842'
p241
sg10
S'OpenZWave:master'
p242
sg12
I32202720
sg13
g14
sg15
S'closed'
p243
sg17
g18
sba(i__main__
Pull
p244
(dp245
g4
S'Corrected description for Aeotec Heavy Duty Smart Switch Gen5: LED Status'
p246
sg6
S'66076939'
p247
sg8
S'841'
p248
sg10
S'OpenZWave:master'
p249
sg12
I32202720
sg13
g46
sg15
S'closed'
p250
sg17
g18
sba(i__main__
Pull
p251
(dp252
g4
S'Modify for implement replace value type from xml, see #787'
p253
sg6
S'66058847'
p254
sg8
S'840'
p255
sg10
S'OpenZWave:master'
p256
sg12
I32202720
sg13
g46
sg15
S'closed'
p257
sg17
g18
sba(i__main__
Pull
p258
(dp259
g4
S'Fixed crash on Windows systems. Timestamp (m_stamp)not parsed as pointer (Used in the Control Panel)'
p260
sg6
S'65873093'
p261
sg8
S'838'
p262
sg10
S'OpenZWave:master'
p263
sg12
I32202720
sg13
g14
sg15
S'closed'
p264
sg17
g18
sba(i__main__
Pull
p265
(dp266
g4
S'Update UBS104.xml'
p267
sg6
S'65751734'
p268
sg8
S'837'
p269
sg10
S'OpenZWave:master'
p270
sg12
I32202720
sg13
g14
sg15
S'closed'
p271
sg17
g18
sba(i__main__
Pull
p272
(dp273
g4
S'Update hsm02.xml'
p274
sg6
S'65751658'
p275
sg8
S'836'
p276
sg10
S'OpenZWave:master'
p277
sg12
I32202720
sg13
g14
sg15
S'closed'
p278
sg17
g18
sba(i__main__
Pull
p279
(dp280
g4
S'Update mimolite.xml'
p281
sg6
S'65751577'
p282
sg8
S'835'
p283
sg10
S'OpenZWave:master'
p284
sg12
I32202720
sg13
g14
sg15
S'closed'
p285
sg17
g18
sba(i__main__
Pull
p286
(dp287
g4
S'Update mhs311.xml'
p288
sg6
S'65751482'
p289
sg8
S'834'
p290
sg10
S'OpenZWave:master'
p291
sg12
I32202720
sg13
g14
sg15
S'closed'
p292
sg17
g18
sba(i__main__
Pull
p293
(dp294
g4
S'Update mhs312.xml'
p295
sg6
S'65751395'
p296
sg8
S'833'
p297
sg10
S'OpenZWave:master'
p298
sg12
I32202720
sg13
g14
sg15
S'closed'
p299
sg17
g18
sba(i__main__
Pull
p300
(dp301
g4
S'Update mhs411.xml'
p302
sg6
S'65751322'
p303
sg8
S'832'
p304
sg10
S'OpenZWave:master'
p305
sg12
I32202720
sg13
g14
sg15
S'closed'
p306
sg17
g18
sba(i__main__
Pull
p307
(dp308
g4
S'Update mhs412.xml'
p309
sg6
S'65751221'
p310
sg8
S'831'
p311
sg10
S'OpenZWave:master'
p312
sg12
I32202720
sg13
g14
sg15
S'closed'
p313
sg17
g18
sba(i__main__
Pull
p314
(dp315
g4
S'Update mhs513.xml'
p316
sg6
S'65751128'
p317
sg8
S'830'
p318
sg10
S'OpenZWave:master'
p319
sg12
I32202720
sg13
g14
sg15
S'closed'
p320
sg17
g18
sba(i__main__
Pull
p321
(dp322
g4
S'Jeedom Config Files Merge'
p323
sg6
S'65737612'
p324
sg8
S'829'
p325
sg10
S'OpenZWave:master'
p326
sg12
I32202720
sg13
g14
sg15
S'closed'
p327
sg17
g18
sba(i__main__
Pull
p328
(dp329
g4
S'Use generic `cc` and `c++` instead of `gcc` and `g++` (Closes #816)'
p330
sg6
S'65523493'
p331
sg8
S'818'
p332
sg10
S'OpenZWave:master'
p333
sg12
I32202720
sg13
g46
sg15
S'open'
p334
sg17
g18
sba(i__main__
Pull
p335
(dp336
g4
S"Remove multi-arch fat binaries as it's not supported in MacOS X anymo\xe2\x80\xa6"
p337
sg6
S'65522665'
p338
sg8
S'817'
p339
sg10
S'OpenZWave:master'
p340
sg12
I32202720
sg13
g46
sg15
S'open'
p341
sg17
g18
sba(i__main__
Pull
p342
(dp343
g4
S'Updated Greenwave config based on attached document'
p344
sg6
S'65068044'
p345
sg8
S'813'
p346
sg10
S'OpenZWave:master'
p347
sg12
I32202720
sg13
g46
sg15
S'closed'
p348
sg17
g18
sba(i__main__
Pull
p349
(dp350
g4
S'#PR-811'
p351
sg6
S'64530471'
p352
sg8
S'811'
p353
sg10
S'OpenZWave:master'
p354
sg12
I32202720
sg13
g14
sg15
S'closed'
p355
sg17
g18
sba(i__main__
Pull
p356
(dp357
g4
S'Add Enerwave ZWN-BPC configuration'
p358
sg6
S'64399451'
p359
sg8
S'810'
p360
sg10
S'OpenZWave:master'
p361
sg12
I32202720
sg13
g14
sg15
S'closed'
p362
sg17
g18
sba(i__main__
Pull
p363
(dp364
g4
S'Correct spelling: faillure -> failure'
p365
sg6
S'64254003'
p366
sg8
S'809'
p367
sg10
S'OpenZWave:master'
p368
sg12
I32202720
sg13
g14
sg15
S'closed'
p369
sg17
g18
sba(i__main__
Pull
p370
(dp371
g4
S'Device Support: Multisensor 6 config update'
p372
sg6
S'63501253'
p373
sg8
S'806'
p374
sg10
S'OpenZWave:master'
p375
sg12
I32202720
sg13
g46
sg15
S'open'
p376
sg17
g18
sba(i__main__
Pull
p377
(dp378
g4
S'New device: Everspring AN181 Miniplug with meter function'
p379
sg6
S'63141250'
p380
sg8
S'805'
p381
sg10
S'OpenZWave:master'
p382
sg12
I32202720
sg13
g14
sg15
S'closed'
p383
sg17
g18
sba(i__main__
Pull
p384
(dp385
g4
S'Configs for Remotec ZTS-110 thermostat.'
p386
sg6
S'63003445'
p387
sg8
S'803'
p388
sg10
S'OpenZWave:master'
p389
sg12
I32202720
sg13
g14
sg15
S'closed'
p390
sg17
g18
sba(i__main__
Pull
p391
(dp392
g4
S'Various changes around the Debian package'
p393
sg6
S'62923232'
p394
sg8
S'802'
p395
sg10
S'OpenZWave:master'
p396
sg12
I32202720
sg13
g46
sg15
S'closed'
p397
sg17
g18
sba(i__main__
Pull
p398
(dp399
g4
S'Device Support: Enerwave ZW20RM configuration params'
p400
sg6
S'62684808'
p401
sg8
S'800'
p402
sg10
S'OpenZWave:master'
p403
sg12
I32202720
sg13
g14
sg15
S'closed'
p404
sg17
g18
sba(i__main__
Pull
p405
(dp406
g4
S'Device Support: GE 12724 Dimmer configuration params'
p407
sg6
S'62652416'
p408
sg8
S'799'
p409
sg10
S'OpenZWave:master'
p410
sg12
I32202720
sg13
g14
sg15
S'closed'
p411
sg17
g18
sba(i__main__
Pull
p412
(dp413
g4
S'Device Support: Nexia DB100Z Z-Wave Doorbell Sensor configuration params'
p414
sg6
S'62652403'
p415
sg8
S'798'
p416
sg10
S'OpenZWave:master'
p417
sg12
I32202720
sg13
g14
sg15
S'closed'
p418
sg17
g18
sba(i__main__
Pull
p419
(dp420
g4
S'Device Support: Leviton VRMX1-1LZ - additional hardware id'
p421
sg6
S'62651759'
p422
sg8
S'797'
p423
sg10
S'OpenZWave:master'
p424
sg12
I32202720
sg13
g14
sg15
S'closed'
p425
sg17
g18
sba(i__main__
Pull
p426
(dp427
g4
S'Add Danfoss RoomSensor and Duwi Static Controller'
p428
sg6
S'62267730'
p429
sg8
S'795'
p430
sg10
S'OpenZWave:master'
p431
sg12
I32202720
sg13
g14
sg15
S'closed'
p432
sg17
g18
sba(i__main__
Pull
p433
(dp434
g4
S'Fixed default values and param types for Aeotec Multisensor 6 & domitech Z-wave Smart LED Light Bulb support added'
p435
sg6
S'61956971'
p436
sg8
S'791'
p437
sg10
S'OpenZWave:master'
p438
sg12
I32202720
sg13
g46
sg15
S'closed'
p439
sg17
g18
sba(i__main__
Pull
p440
(dp441
g4
S'Issue #771 - We need to have "includedir" into the -I. Do that with pkg-config'
p442
sg6
S'61441155'
p443
sg8
S'786'
p444
sg10
S'OpenZWave:master'
p445
sg12
I32202720
sg13
g46
sg15
S'closed'
p446
sg17
g18
sba(i__main__
Pull
p447
(dp448
g4
S'Update ZME_WALLC-S.xml'
p449
sg6
S'61050272'
p450
sg8
S'785'
p451
sg10
S'OpenZWave:master'
p452
sg12
I32202720
sg13
g46
sg15
S'closed'
p453
sg17
g18
sba(i__main__
Pull
p454
(dp455
g4
S'drive.cpp UPDATE_STATE_NEW_ID_ASSIGNED fix'
p456
sg6
S'60028596'
p457
sg8
S'782'
p458
sg10
S'OpenZWave:master'
p459
sg12
I32202720
sg13
g14
sg15
S'closed'
p460
sg17
g18
sba(i__main__
Pull
p461
(dp462
g4
S'Add D-Link dch-z120 PIR/motion sensor'
p463
sg6
S'59939634'
p464
sg8
S'780'
p465
sg10
S'OpenZWave:master'
p466
sg12
I32202720
sg13
g14
sg15
S'closed'
p467
sg17
g18
sba(i__main__
Pull
p468
(dp469
g4
S'Jeedom Confs Synchronisation'
p470
sg6
S'59849614'
p471
sg8
S'779'
p472
sg10
S'OpenZWave:master'
p473
sg12
I32202720
sg13
g14
sg15
S'closed'
p474
sg17
g18
sba(i__main__
Pull
p475
(dp476
g4
S'Ecolink Door/Window Sensor'
p477
sg6
S'59260779'
p478
sg8
S'773'
p479
sg10
S'OpenZWave:master'
p480
sg12
I32202720
sg13
g14
sg15
S'closed'
p481
sg17
g18
sba(i__main__
Pull
p482
(dp483
g4
S'Support multiple CPPFLAGS'
p484
sg6
S'58606784'
p485
sg8
S'770'
p486
sg10
S'OpenZWave:master'
p487
sg12
I32202720
sg13
g46
sg15
S'closed'
p488
sg17
g18
sba(i__main__
Pull
p489
(dp490
g4
S'Small correct Fibaro FGS221 from manual'
p491
sg6
S'58397871'
p492
sg8
S'769'
p493
sg10
S'OpenZWave:master'
p494
sg12
I32202720
sg13
g14
sg15
S'closed'
p495
sg17
g18
sba(i__main__
Pull
p496
(dp497
g4
S'Update Fibaro FGS222 from manual'
p498
sg6
S'58397657'
p499
sg8
S'768'
p500
sg10
S'OpenZWave:master'
p501
sg12
I32202720
sg13
g14
sg15
S'closed'
p502
sg17
g18
sba(i__main__
Pull
p503
(dp504
g4
S'Correct update param. from manual for Fibaro FGS221'
p505
sg6
S'58187103'
p506
sg8
S'767'
p507
sg10
S'OpenZWave:master'
p508
sg12
I32202720
sg13
g14
sg15
S'closed'
p509
sg17
g18
sba(i__main__
Pull
p510
(dp511
g4
S'Add support for zwave.me ZME_05461 dual load wall switch'
p512
sg6
S'58162837'
p513
sg8
S'766'
p514
sg10
S'OpenZWave:master'
p515
sg12
I32202720
sg13
g14
sg15
S'closed'
p516
sg17
g18
sba(i__main__
Pull
p517
(dp518
g4
S'Add Dlink DCH-Z510 Siren'
p519
sg6
S'57844986'
p520
sg8
S'764'
p521
sg10
S'OpenZWave:master'
p522
sg12
I32202720
sg13
g14
sg15
S'closed'
p523
sg17
g18
sba(i__main__
Pull
p524
(dp525
g4
S'Update manufacturer_specific.xml'
p526
sg6
S'57810699'
p527
sg8
S'763'
p528
sg10
S'OpenZWave:master'
p529
sg12
I32202720
sg13
g14
sg15
S'closed'
p530
sg17
g18
sba(i__main__
Pull
p531
(dp532
g4
S'Create scsc17.xml'
p533
sg6
S'57810554'
p534
sg8
S'762'
p535
sg10
S'OpenZWave:master'
p536
sg12
I32202720
sg13
g14
sg15
S'closed'
p537
sg17
g18
sba(i__main__
Pull
p538
(dp539
g4
S'Add support for Fakro ARZ'
p540
sg6
S'57806949'
p541
sg8
S'761'
p542
sg10
S'OpenZWave:master'
p543
sg12
I32202720
sg13
g14
sg15
S'closed'
p544
sg17
g18
sba(i__main__
Pull
p545
(dp546
g4
S'Add support for Fakro ARZ, ZWS12, ZWS230'
p547
sg6
S'57806295'
p548
sg8
S'760'
p549
sg10
S'OpenZWave:master'
p550
sg12
I32202720
sg13
g46
sg15
S'closed'
p551
sg17
g18
sba(i__main__
Pull
p552
(dp553
g4
S'Qubino Submitted Config Files'
p554
sg6
S'57798126'
p555
sg8
S'759'
p556
sg10
S'OpenZWave:master'
p557
sg12
I32202720
sg13
g14
sg15
S'closed'
p558
sg17
g18
sba(i__main__
Pull
p559
(dp560
g4
S'Add support for Fakro Roof Windows Roller Shutter ARZ Z-Wave'
p561
sg6
S'57769739'
p562
sg8
S'758'
p563
sg10
S'OpenZWave:master'
p564
sg12
I32202720
sg13
g46
sg15
S'closed'
p565
sg17
g18
sba(i__main__
Pull
p566
(dp567
g4
S'fixed minimote default value'
p568
sg6
S'57242405'
p569
sg8
S'753'
p570
sg10
S'OpenZWave:master'
p571
sg12
I32202720
sg13
g14
sg15
S'closed'
p572
sg17
g18
sba(i__main__
Pull
p573
(dp574
g4
S'Add Devolo Home Control Radiator Thermostat'
p575
sg6
S'57203885'
p576
sg8
S'752'
p577
sg10
S'OpenZWave:master'
p578
sg12
I32202720
sg13
g14
sg15
S'closed'
p579
sg17
g18
sba(i__main__
Pull
p580
(dp581
g4
S'Add support for Fibaru FGD212 AH (Australian version).'
p582
sg6
S'56991976'
p583
sg8
S'751'
p584
sg10
S'OpenZWave:master'
p585
sg12
I32202720
sg13
g14
sg15
S'closed'
p586
sg17
g18
sba(i__main__
Pull
p587
(dp588
g4
S'Multi-platform compatible FreeBSD build fix for iconv'
p589
sg6
S'56977951'
p590
sg8
S'750'
p591
sg10
S'OpenZWave:master'
p592
sg12
I32202720
sg13
g14
sg15
S'closed'
p593
sg17
g18
sba(i__main__
Pull
p594
(dp595
g4
S'Fixed HID api exports for WIN32 builds'
p596
sg6
S'56276454'
p597
sg8
S'746'
p598
sg10
S'OpenZWave:master'
p599
sg12
I32202720
sg13
g46
sg15
S'closed'
p600
sg17
g18
sba(i__main__
Pull
p601
(dp602
g4
S'Integration of Danfoss room sensor 014G0160'
p603
sg6
S'56274600'
p604
sg8
S'744'
p605
sg10
S'OpenZWave:master'
p606
sg12
I32202720
sg13
g46
sg15
S'closed'
p607
sg17
g18
sba(i__main__
Pull
p608
(dp609
g4
S'Added product numbers for FIBARO motion sensor, and door sensors.'
p610
sg6
S'56224098'
p611
sg8
S'743'
p612
sg10
S'OpenZWave:master'
p613
sg12
I32202720
sg13
g14
sg15
S'closed'
p614
sg17
g18
sba(i__main__
Pull
p615
(dp616
g4
S'Update manufacturer_specific.xml'
p617
sg6
S'56163319'
p618
sg8
S'742'
p619
sg10
S'OpenZWave:master'
p620
sg12
I32202720
sg13
g46
sg15
S'closed'
p621
sg17
g18
sba(i__main__
Pull
p622
(dp623
g4
S'Added US version of Fibaro FGMS-001'
p624
sg6
S'55875161'
p625
sg8
S'740'
p626
sg10
S'OpenZWave:master'
p627
sg12
I32202720
sg13
g14
sg15
S'closed'
p628
sg17
g18
sba(i__main__
Pull
p629
(dp630
g4
S' ZW15S config params'
p631
sg6
S'55720572'
p632
sg8
S'737'
p633
sg10
S'OpenZWave:master'
p634
sg12
I32202720
sg13
g14
sg15
S'closed'
p635
sg17
g18
sba(i__main__
Pull
p636
(dp637
g4
S'update dotnet wrapper'
p638
sg6
S'55697365'
p639
sg8
S'736'
p640
sg10
S'OpenZWave:master'
p641
sg12
I32202720
sg13
g46
sg15
S'closed'
p642
sg17
g18
sba(i__main__
Pull
p643
(dp644
g4
S'update dotnet wrapper'
p645
sg6
S'55696941'
p646
sg8
S'735'
p647
sg10
S'OpenZWave:master'
p648
sg12
I32202720
sg13
g46
sg15
S'closed'
p649
sg17
g18
sba(i__main__
Pull
p650
(dp651
g4
S'Add support for Wenzhou TKB TSM02 4 in 1 multi-sensor.'
p652
sg6
S'55626279'
p653
sg8
S'733'
p654
sg10
S'OpenZWave:master'
p655
sg12
I32202720
sg13
g46
sg15
S'closed'
p656
sg17
g18
sba(i__main__
Pull
p657
(dp658
g4
S'fix how CPPFLAGS are passed to Makefile in all: target'
p659
sg6
S'55574431'
p660
sg8
S'732'
p661
sg10
S'OpenZWave:master'
p662
sg12
I32202720
sg13
g46
sg15
S'closed'
p663
sg17
g18
sba(i__main__
Pull
p664
(dp665
g4
S'Merge in WinRT buildfiles into master. '
p666
sg6
S'55544560'
p667
sg8
S'730'
p668
sg10
S'OpenZWave:master'
p669
sg12
I32202720
sg13
g14
sg15
S'closed'
p670
sg17
g18
sba(i__main__
Pull
p671
(dp672
g4
S'hid.c: make inptr in get_usb_string const'
p673
sg6
S'55300637'
p674
sg8
S'728'
p675
sg10
S'OpenZWave:master'
p676
sg12
I32202720
sg13
g14
sg15
S'closed'
p677
sg17
g18
sba(i__main__
Pull
p678
(dp679
g4
S'update dotnet wrapper'
p680
sg6
S'55257904'
p681
sg8
S'727'
p682
sg10
S'OpenZWave:master'
p683
sg12
I32202720
sg13
g14
sg15
S'closed'
p684
sg17
g18
sba(i__main__
Pull
p685
(dp686
g4
S'Small update'
p687
sg6
S'55154364'
p688
sg8
S'726'
p689
sg10
S'OpenZWave:master'
p690
sg12
I32202720
sg13
g46
sg15
S'closed'
p691
sg17
g18
sba(i__main__
Pull
p692
(dp693
g4
S'Changed parameter index to match manual: "59. Approximated power at t\xe2\x80\xa6'
p694
sg6
S'54924720'
p695
sg8
S'724'
p696
sg10
S'OpenZWave:master'
p697
sg12
I32202720
sg13
g14
sg15
S'closed'
p698
sg17
g18
sba(i__main__
Pull
p699
(dp700
g4
S'Add brk smoke C02 Detector'
p701
sg6
S'54896293'
p702
sg8
S'723'
p703
sg10
S'OpenZWave:master'
p704
sg12
I32202720
sg13
g46
sg15
S'closed'
p705
sg17
g18
sba(i__main__
Pull
p706
(dp707
g4
S'Update manufacturer_specific.xml'
p708
sg6
S'54731846'
p709
sg8
S'722'
p710
sg10
S'OpenZWave:master'
p711
sg12
I32202720
sg13
g14
sg15
S'closed'
p712
sg17
g18
sba(i__main__
Pull
p713
(dp714
g4
S'Create POP009303.xml'
p715
sg6
S'54731793'
p716
sg8
S'721'
p717
sg10
S'OpenZWave:master'
p718
sg12
I32202720
sg13
g14
sg15
S'closed'
p719
sg17
g18
sba(i__main__
Pull
p720
(dp721
g4
S'Added support for Merten Plug-in Roller Shutter Module.'
p722
sg6
S'54688650'
p723
sg8
S'720'
p724
sg10
S'OpenZWave:master'
p725
sg12
I32202720
sg13
g14
sg15
S'closed'
p726
sg17
g18
sba(i__main__
Pull
p727
(dp728
g4
S'ZME_064281 Wall Plug switch Schuko (IP44) - Gen 5'
p729
sg6
S'53820255'
p730
sg8
S'713'
p731
sg10
S'OpenZWave:master'
p732
sg12
I32202720
sg13
g46
sg15
S'closed'
p733
sg17
g18
sba(i__main__
Pull
p734
(dp735
g4
S'add manager interface and value list method to retrieve list of integer values from value list'
p736
sg6
S'53470186'
p737
sg8
S'712'
p738
sg10
S'OpenZWave:master'
p739
sg12
I32202720
sg13
g14
sg15
S'closed'
p740
sg17
g18
sba(i__main__
Pull
p741
(dp742
g4
S'Added OZW config file for POPP Wall Plug Switch Schuko (IP44).'
p743
sg6
S'53333481'
p744
sg8
S'711'
p745
sg10
S'OpenZWave:master'
p746
sg12
I32202720
sg13
g14
sg15
S'closed'
p747
sg17
g18
sba(i__main__
Pull
p748
(dp749
g4
S'Added support for Eurotronic Comet Z-Wave'
p750
sg6
S'53201269'
p751
sg8
S'710'
p752
sg10
S'OpenZWave:master'
p753
sg12
I32202720
sg13
g14
sg15
S'closed'
p754
sg17
g18
sba(i__main__
Pull
p755
(dp756
g4
S'Minor fixes'
p757
sg6
S'53066337'
p758
sg8
S'708'
p759
sg10
S'OpenZWave:master'
p760
sg12
I32202720
sg13
g14
sg15
S'closed'
p761
sg17
g18
sba(i__main__
Pull
p762
(dp763
g4
S'Disabled debug line'
p764
sg6
S'52750272'
p765
sg8
S'707'
p766
sg10
S'OpenZWave:master'
p767
sg12
I32202720
sg13
g14
sg15
S'closed'
p768
sg17
g18
sba(i__main__
Pull
p769
(dp770
g4
S'Add Qubino ZMNHCDx support'
p771
sg6
S'52591919'
p772
sg8
S'706'
p773
sg10
S'OpenZWave:master'
p774
sg12
I32202720
sg13
g14
sg15
S'closed'
p775
sg17
g18
sba(i__main__
Pull
p776
(dp777
g4
S'Configs for fortrezz MIMOlite'
p778
sg6
S'52311289'
p779
sg8
S'705'
p780
sg10
S'OpenZWave:master'
p781
sg12
I32202720
sg13
g14
sg15
S'closed'
p782
sg17
g18
sba(i__main__
Pull
p783
(dp784
g4
S'FreeBSD fixes'
p785
sg6
S'51834954'
p786
sg8
S'701'
p787
sg10
S'OpenZWave:master'
p788
sg12
I32202720
sg13
g14
sg15
S'closed'
p789
sg17
g18
sba(i__main__
Pull
p790
(dp791
g4
S'Updated Linear switch configs and added Enerwave ZWN-SC7 config.'
p792
sg6
S'51599432'
p793
sg8
S'700'
p794
sg10
S'OpenZWave:master'
p795
sg12
I32202720
sg13
g14
sg15
S'closed'
p796
sg17
g18
sba(i__main__
Pull
p797
(dp798
g4
S'Config for HomeSeer HSM200, add config parameters for schlage touchscreen deadbolts.'
p799
sg6
S'51013960'
p800
sg8
S'696'
p801
sg10
S'OpenZWave:master'
p802
sg12
I32202720
sg13
g14
sg15
S'closed'
p803
sg17
g18
sba(i__main__
Pull
p804
(dp805
g4
S'Update Deb files'
p806
sg6
S'50813854'
p807
sg8
S'694'
p808
sg10
S'OpenZWave:master'
p809
sg12
I32202720
sg13
g14
sg15
S'closed'
p810
sg17
g18
sba(i__main__
Pull
p811
(dp812
g4
S'constify Notification::GetAsString() '
p813
sg6
S'50636351'
p814
sg8
S'693'
p815
sg10
S'OpenZWave:master'
p816
sg12
I32202720
sg13
g14
sg15
S'closed'
p817
sg17
g18
sba(i__main__
Pull
p818
(dp819
g4
S'Fixed crash in CommandClass::ReadValueRefreshXML and corrected 3 type castings'
p820
sg6
S'50035232'
p821
sg8
S'690'
p822
sg10
S'OpenZWave:master'
p823
sg12
I32202720
sg13
g46
sg15
S'closed'
p824
sg17
g18
sba(i__main__
Pull
p825
(dp826
g4
S'Update Debian packaging'
p827
sg6
S'50033203'
p828
sg8
S'689'
p829
sg10
S'OpenZWave:master'
p830
sg12
I32202720
sg13
g14
sg15
S'closed'
p831
sg17
g18
sba(i__main__
Pull
p832
(dp833
g4
S'add config for Australian aeon z-stick gen5'
p834
sg6
S'49519591'
p835
sg8
S'686'
p836
sg10
S'OpenZWave:master'
p837
sg12
I32202720
sg13
g14
sg15
S'closed'
p838
sg17
g18
sba(i__main__
Pull
p839
(dp840
g4
S'Fix includes to not assume the base include directory'
p841
sg6
S'48398367'
p842
sg8
S'678'
p843
sg10
S'OpenZWave:master'
p844
sg12
I32202720
sg13
g46
sg15
S'closed'
p845
sg17
g18
sba(i__main__
Pull
p846
(dp847
g4
S'Added configuration files for Linear dimmers'
p848
sg6
S'48397220'
p849
sg8
S'677'
p850
sg10
S'OpenZWave:master'
p851
sg12
I32202720
sg13
g14
sg15
S'closed'
p852
sg17
g18
sba(i__main__
Pull
p853
(dp854
g4
S'update dotnet wrapper'
p855
sg6
S'48177236'
p856
sg8
S'676'
p857
sg10
S'OpenZWave:master'
p858
sg12
I32202720
sg13
g14
sg15
S'closed'
p859
sg17
g18
sba(i__main__
Pull
p860
(dp861
g4
S'Typo: Changes "Temerature" to "Temperature"'
p862
sg6
S'47598282'
p863
sg8
S'670'
p864
sg10
S'OpenZWave:master'
p865
sg12
I32202720
sg13
g14
sg15
S'closed'
p866
sg17
g18
sba(i__main__
Pull
p867
(dp868
g4
S'PR: add some useful variables in pkg-config'
p869
sg6
S'47341827'
p870
sg8
S'668'
p871
sg10
S'OpenZWave:master'
p872
sg12
I32202720
sg13
g14
sg15
S'closed'
p873
sg17
g18
sba(i__main__
Pull
p874
(dp875
g4
S'Added Qubino ZMNHBD2 Flush 2 Relays module'
p876
sg6
S'46868017'
p877
sg8
S'665'
p878
sg10
S'OpenZWave:master'
p879
sg12
I32202720
sg13
g14
sg15
S'closed'
p880
sg17
g18
sba(i__main__
Pull
p881
(dp882
g4
S'add ZMHAD1 Qubino support'
p883
sg6
S'46581719'
p884
sg8
S'664'
p885
sg10
S'OpenZWave:master'
p886
sg12
I32202720
sg13
g46
sg15
S'closed'
p887
sg17
g18
sba(i__main__
Pull
p888
(dp889
g4
S'Dev'
p890
sg6
S'46292210'
p891
sg8
S'662'
p892
sg10
S'OpenZWave:master'
p893
sg12
I32202720
sg13
g46
sg15
S'closed'
p894
sg17
g18
sba(i__main__
Pull
p895
(dp896
g4
S'Issue #446 - Visual Studio 2015 Breakage'
p897
sg6
S'46235099'
p898
sg8
S'661'
p899
sg10
S'OpenZWave:master'
p900
sg12
I32202720
sg13
g14
sg15
S'closed'
p901
sg17
g18
sba(i__main__
Pull
p902
(dp903
g4
S'Add D-Link Corp and DCH-Z110 Door/Window 3in1 Sensor'
p904
sg6
S'45474822'
p905
sg8
S'659'
p906
sg10
S'OpenZWave:master'
p907
sg12
I32202720
sg13
g14
sg15
S'closed'
p908
sg17
g18
sba(i__main__
Pull
p909
(dp910
g4
S'Update manufacturer_specific.xml'
p911
sg6
S'43801692'
p912
sg8
S'655'
p913
sg10
S'OpenZWave:master'
p914
sg12
I32202720
sg13
g14
sg15
S'closed'
p915
sg17
g18
sba(i__main__
Pull
p916
(dp917
g4
S'Create HeatingControl.xml'
p918
sg6
S'43801343'
p919
sg8
S'654'
p920
sg10
S'OpenZWave:master'
p921
sg12
I32202720
sg13
g14
sg15
S'closed'
p922
sg17
g18
sba(i__main__
Pull
p923
(dp924
g4
S'Updated confs from jeedom 1 commit by modification (all config tested and used by jeedom dev team and lots of jeedom users)'
p925
sg6
S'42985900'
p926
sg8
S'651'
p927
sg10
S'OpenZWave:master'
p928
sg12
I32202720
sg13
g14
sg15
S'closed'
p929
sg17
g18
sba(i__main__
Pull
p930
(dp931
g4
S'Add Mcohome MH-S411 & MH-S412'
p932
sg6
S'42913314'
p933
sg8
S'650'
p934
sg10
S'OpenZWave:master'
p935
sg12
I32202720
sg13
g46
sg15
S'closed'
p936
sg17
g18
sba(i__main__
Pull
p937
(dp938
g4
S'Add Everspring st812-Flood Detector'
p939
sg6
S'42810245'
p940
sg8
S'649'
p941
sg10
S'OpenZWave:master'
p942
sg12
I32202720
sg13
g14
sg15
S'closed'
p943
sg17
g18
sba(i__main__
Pull
p944
(dp945
g4
S'Added configuration for Merten 50x5xx Roller Shutter Module'
p946
sg6
S'42531380'
p947
sg8
S'648'
p948
sg10
S'OpenZWave:master'
p949
sg12
I32202720
sg13
g14
sg15
S'closed'
p950
sg17
g18
sba(i__main__
Pull
p951
(dp952
g4
S'config for Fibaro FGR221 (firmware 109)'
p953
sg6
S'41995129'
p954
sg8
S'645'
p955
sg10
S'OpenZWave:master'
p956
sg12
I32202720
sg13
g14
sg15
S'closed'
p957
sg17
g18
sba(i__main__
Pull
p958
(dp959
g4
S'Adding WinRT implementation of OpenZWave stack'
p960
sg6
S'41842407'
p961
sg8
S'643'
p962
sg10
S'OpenZWave:master'
p963
sg12
I32202720
sg13
g14
sg15
S'closed'
p964
sg17
g18
sba(i__main__
Pull
p965
(dp966
g4
S'config ZMNHBA2: correct instance/endpoint mapping'
p967
sg6
S'41415232'
p968
sg8
S'641'
p969
sg10
S'OpenZWave:master'
p970
sg12
I32202720
sg13
g14
sg15
S'closed'
p971
sg17
g18
sba(i__main__
Pull
p972
(dp973
g4
S'config for Fibaro Fgd212 dimmer 2'
p974
sg6
S'41400810'
p975
sg8
S'640'
p976
sg10
S'OpenZWave:master'
p977
sg12
I32202720
sg13
g14
sg15
S'closed'
p978
sg17
g18
sba(i__main__
Pull
p979
(dp980
g4
S'Update ZME_06433 with bugfixes and new options'
p981
sg6
S'41315326'
p982
sg8
S'639'
p983
sg10
S'OpenZWave:master'
p984
sg12
I32202720
sg13
g14
sg15
S'closed'
p985
sg17
g18
sba(i__main__
Pull
p986
(dp987
g4
S'Update manufacturer_specific.xml'
p988
sg6
S'41026617'
p989
sg8
S'636'
p990
sg10
S'OpenZWave:master'
p991
sg12
I32202720
sg13
g14
sg15
S'closed'
p992
sg17
g18
sba(i__main__
Pull
p993
(dp994
g4
S'Create UME304C_S.xml'
p995
sg6
S'41025534'
p996
sg8
S'635'
p997
sg10
S'OpenZWave:master'
p998
sg12
I32202720
sg13
g14
sg15
S'closed'
p999
sg17
g18
sba(i__main__
Pull
p1000
(dp1001
g4
S'do not create empty values lists'
p1002
sg6
S'41014969'
p1003
sg8
S'634'
p1004
sg10
S'OpenZWave:master'
p1005
sg12
I32202720
sg13
g14
sg15
S'closed'
p1006
sg17
g18
sba(i__main__
Pull
p1007
(dp1008
g4
S'Update manufacturer_specific.xml'
p1009
sg6
S'40833165'
p1010
sg8
S'630'
p1011
sg10
S'OpenZWave:master'
p1012
sg12
I32202720
sg13
g14
sg15
S'closed'
p1013
sg17
g18
sba(i__main__
Pull
p1014
(dp1015
g4
S'Added support for Schlage Connect BE469NXCEN Touchscreen Deadbolt'
p1016
sg6
S'40155606'
p1017
sg8
S'624'
p1018
sg10
S'OpenZWave:master'
p1019
sg12
I32202720
sg13
g46
sg15
S'closed'
p1020
sg17
g18
sba(i__main__
Pull
p1021
(dp1022
g4
S'patch-aeotec-micro-ses-01'
p1023
sg6
S'39934389'
p1024
sg8
S'622'
p1025
sg10
S'OpenZWave:master'
p1026
sg12
I32202720
sg13
g14
sg15
S'closed'
p1027
sg17
g18
sba(i__main__
Pull
p1028
(dp1029
g4
S'Added support for the BeNext Energy Switch with type=0006 and id=0200'
p1030
sg6
S'39241299'
p1031
sg8
S'618'
p1032
sg10
S'OpenZWave:master'
p1033
sg12
I32202720
sg13
g14
sg15
S'closed'
p1034
sg17
g18
sba(i__main__
Pull
p1035
(dp1036
g4
S'New CommandClasses '
p1037
sg6
S'39157420'
p1038
sg8
S'617'
p1039
sg10
S'OpenZWave:master'
p1040
sg12
I32202720
sg13
g14
sg15
S'closed'
p1041
sg17
g18
sba(i__main__
Pull
p1042
(dp1043
g4
S'#501: redo check if mode is supported'
p1044
sg6
S'39010048'
p1045
sg8
S'616'
p1046
sg10
S'OpenZWave:New-CC'
p1047
sg12
I32202720
sg13
g46
sg15
S'closed'
p1048
sg17
g18
sba(i__main__
Pull
p1049
(dp1050
g4
S'Update SensorBinary CommandClass'
p1051
sg6
S'38711450'
p1052
sg8
S'614'
p1053
sg10
S'OpenZWave:New-CC'
p1054
sg12
I32202720
sg13
g46
sg15
S'open'
p1055
sg17
g18
sba(i__main__
Pull
p1056
(dp1057
g4
S'AssociationGroupInfo Command Class (rebased version)'
p1058
sg6
S'38475352'
p1059
sg8
S'613'
p1060
sg10
S'OpenZWave:New-CC'
p1061
sg12
I32202720
sg13
g14
sg15
S'closed'
p1062
sg17
g18
sba(i__main__
Pull
p1063
(dp1064
g4
S'Update Alarm CommandClass'
p1065
sg6
S'38433857'
p1066
sg8
S'612'
p1067
sg10
S'OpenZWave:New-CC'
p1068
sg12
I32202720
sg13
g14
sg15
S'closed'
p1069
sg17
g18
sba(i__main__
Pull
p1070
(dp1071
g4
S'Add Aeotec DSC24 and Everspring AD147'
p1072
sg6
S'38165070'
p1073
sg8
S'607'
p1074
sg10
S'OpenZWave:master'
p1075
sg12
I32202720
sg13
g14
sg15
S'closed'
p1076
sg17
g18
sba(i__main__
Pull
p1077
(dp1078
g4
S'SceneActuatorConf and SceneControllerConf Command Class'
p1079
sg6
S'37903381'
p1080
sg8
S'604'
p1081
sg10
S'OpenZWave:New-CC'
p1082
sg12
I32202720
sg13
g46
sg15
S'open'
p1083
sg17
g18
sba(i__main__
Pull
p1084
(dp1085
g4
S'DeviceResetLocally Command Class'
p1086
sg6
S'37901892'
p1087
sg8
S'603'
p1088
sg10
S'OpenZWave:New-CC'
p1089
sg12
I32202720
sg13
g14
sg15
S'closed'
p1090
sg17
g18
sba(i__main__
Pull
p1091
(dp1092
g4
S'AssociationGroupInfo Command Class'
p1093
sg6
S'37900864'
p1094
sg8
S'602'
p1095
sg10
S'OpenZWave:New-CC'
p1096
sg12
I32202720
sg13
g46
sg15
S'closed'
p1097
sg17
g18
sba(i__main__
Pull
p1098
(dp1099
g4
S'Make libudev dependency optional'
p1100
sg6
S'37557524'
p1101
sg8
S'600'
p1102
sg10
S'OpenZWave:master'
p1103
sg12
I32202720
sg13
g46
sg15
S'open'
p1104
sg17
g18
sba(i__main__
Pull
p1105
(dp1106
g4
S'add specific configuration files for fgs212 and fgs222'
p1107
sg6
S'37393801'
p1108
sg8
S'598'
p1109
sg10
S'OpenZWave:master'
p1110
sg12
I32202720
sg13
g14
sg15
S'closed'
p1111
sg17
g18
sba(i__main__
Pull
p1112
(dp1113
g4
S'Update ses2.xml'
p1114
sg6
S'37353671'
p1115
sg8
S'597'
p1116
sg10
S'OpenZWave:master'
p1117
sg12
I32202720
sg13
g14
sg15
S'closed'
p1118
sg17
g18
sba(i__main__
Pull
p1119
(dp1120
g4
S'AeonLabs and GE manufacture updates'
p1121
sg6
S'37179250'
p1122
sg8
S'596'
p1123
sg10
S'OpenZWave:master'
p1124
sg12
I32202720
sg13
g14
sg15
S'closed'
p1125
sg17
g18
sba(i__main__
Pull
p1126
(dp1127
g4
S'update smart switch gen5'
p1128
sg6
S'37109945'
p1129
sg8
S'595'
p1130
sg10
S'OpenZWave:master'
p1131
sg12
I32202720
sg13
g14
sg15
S'closed'
p1132
sg17
g18
sba(i__main__
Pull
p1133
(dp1134
g4
S'Update minimote.xml'
p1135
sg6
S'37096921'
p1136
sg8
S'594'
p1137
sg10
S'OpenZWave:master'
p1138
sg12
I32202720
sg13
g14
sg15
S'closed'
p1139
sg17
g18
sba(i__main__
Pull
p1140
(dp1141
g4
S'Update keyfob2.xml'
p1142
sg6
S'37096684'
p1143
sg8
S'593'
p1144
sg10
S'OpenZWave:master'
p1145
sg12
I32202720
sg13
g14
sg15
S'closed'
p1146
sg17
g18
sba(i__main__
Pull
p1147
(dp1148
g4
S'update Smart Energy Switch G5'
p1149
sg6
S'37007952'
p1150
sg8
S'591'
p1151
sg10
S'OpenZWave:master'
p1152
sg12
I32202720
sg13
g46
sg15
S'closed'
p1153
sg17
g18
sba(i__main__
Pull
p1154
(dp1155
g4
S'Fixed sending color command, Disable other colors when sending value'
p1156
sg6
S'36905245'
p1157
sg8
S'588'
p1158
sg10
S'OpenZWave:New-CC'
p1159
sg12
I32202720
sg13
g46
sg15
S'closed'
p1160
sg17
g18
sba(i__main__
Pull
p1161
(dp1162
g4
S'add Z-Wave.Me: ZME_WALLC-S Secure Wall Controller'
p1163
sg6
S'36815336'
p1164
sg8
S'587'
p1165
sg10
S'OpenZWave:master'
p1166
sg12
I32202720
sg13
g14
sg15
S'closed'
p1167
sg17
g18
sba(i__main__
Pull
p1168
(dp1169
g4
S'Merge the Security Rewrite into the master branch'
p1170
sg6
S'36411927'
p1171
sg8
S'582'
p1172
sg10
S'OpenZWave:master'
p1173
sg12
I32202720
sg13
g14
sg15
S'closed'
p1174
sg17
g18
sba(i__main__
Pull
p1175
(dp1176
g4
S'Update MiniKeypad.xml'
p1177
sg6
S'36294323'
p1178
sg8
S'581'
p1179
sg10
S'OpenZWave:master'
p1180
sg12
I32202720
sg13
g14
sg15
S'closed'
p1181
sg17
g18
sba(i__main__
Pull
p1182
(dp1183
g4
S'Update manufacturer_specific.xml'
p1184
sg6
S'36233355'
p1185
sg8
S'580'
p1186
sg10
S'OpenZWave:master'
p1187
sg12
I32202720
sg13
g14
sg15
S'closed'
p1188
sg17
g18
sba(i__main__
Pull
p1189
(dp1190
g4
S'Update ZME_064435.xml'
p1191
sg6
S'36121299'
p1192
sg8
S'579'
p1193
sg10
S'OpenZWave:master'
p1194
sg12
I32202720
sg13
g46
sg15
S'closed'
p1195
sg17
g18
sba(i__main__
Pull
p1196
(dp1197
g4
S'Add NodOn SmartPlug'
p1198
sg6
S'36120011'
p1199
sg8
S'578'
p1200
sg10
S'OpenZWave:master'
p1201
sg12
I32202720
sg13
g14
sg15
S'closed'
p1202
sg17
g18
sba(i__main__
Pull
p1203
(dp1204
g4
S'Add NodOn SmartPlug'
p1205
sg6
S'36119241'
p1206
sg8
S'577'
p1207
sg10
S'OpenZWave:master'
p1208
sg12
I32202720
sg13
g46
sg15
S'closed'
p1209
sg17
g18
sba(i__main__
Pull
p1210
(dp1211
g4
S'Correct help sentence for Qubino ZMNHBA2'
p1212
sg6
S'36106660'
p1213
sg8
S'576'
p1214
sg10
S'OpenZWave:master'
p1215
sg12
I32202720
sg13
g14
sg15
S'closed'
p1216
sg17
g18
sba(i__main__
Pull
p1217
(dp1218
g4
S'Update manufacturer_specific.xml'
p1219
sg6
S'36092323'
p1220
sg8
S'574'
p1221
sg10
S'OpenZWave:master'
p1222
sg12
I32202720
sg13
g14
sg15
S'closed'
p1223
sg17
g18
sba(i__main__
Pull
p1224
(dp1225
g4
S'Add NodOn SmartPlug'
p1226
sg6
S'36070901'
p1227
sg8
S'573'
p1228
sg10
S'OpenZWave:master'
p1229
sg12
I32202720
sg13
g46
sg15
S'closed'
p1230
sg17
g18
sba(i__main__
Pull
p1231
(dp1232
g4
S"revert ChangeLog, method was added in 'Issue-352-Security' branch but\xe2\x80\xa6"
p1233
sg6
S'35977780'
p1234
sg8
S'572'
p1235
sg10
S'OpenZWave:master'
p1236
sg12
I32202720
sg13
g46
sg15
S'closed'
p1237
sg17
g18
sba(i__main__
Pull
p1238
(dp1239
g4
S'update ChangeLog, a method was added in but this was not mentioned in\xe2\x80\xa6'
p1240
sg6
S'35977726'
p1241
sg8
S'571'
p1242
sg10
S'OpenZWave:Issue-352-Security'
p1243
sg12
I32202720
sg13
g46
sg15
S'closed'
p1244
sg17
g18
sba(i__main__
Pull
p1245
(dp1246
g4
S'Z-Wave Plus Info Report Command Class'
p1247
sg6
S'35862128'
p1248
sg8
S'570'
p1249
sg10
S'OpenZWave:New-CC'
p1250
sg12
I32202720
sg13
g14
sg15
S'closed'
p1251
sg17
g18
sba(i__main__
Pull
p1252
(dp1253
g4
S'MultiInstanceAssociation windows fix?'
p1254
sg6
S'35809216'
p1255
sg8
S'569'
p1256
sg10
S'OpenZWave:New-CC'
p1257
sg12
I32202720
sg13
g14
sg15
S'closed'
p1258
sg17
g18
sba(i__main__
Pull
p1259
(dp1260
g4
S'Update manufacturer_specific.xml'
p1261
sg6
S'35760747'
p1262
sg8
S'567'
p1263
sg10
S'OpenZWave:master'
p1264
sg12
I32202720
sg13
g14
sg15
S'closed'
p1265
sg17
g18
sba(i__main__
Pull
p1266
(dp1267
g4
S'[RFC] MultiInstanceAssociation support'
p1268
sg6
S'35657923'
p1269
sg8
S'565'
p1270
sg10
S'OpenZWave:New-CC'
p1271
sg12
I32202720
sg13
g14
sg15
S'closed'
p1272
sg17
g18
sba(i__main__
Pull
p1273
(dp1274
g4
S'add database support for the Cooper all load dimmer and configuration for Cooper outlet'
p1275
sg6
S'35599641'
p1276
sg8
S'564'
p1277
sg10
S'OpenZWave:master'
p1278
sg12
I32202720
sg13
g14
sg15
S'closed'
p1279
sg17
g18
sba(i__main__
Pull
p1280
(dp1281
g4
S'Fixed windows build event (winversion.cpp generation)'
p1282
sg6
S'35579436'
p1283
sg8
S'562'
p1284
sg10
S'OpenZWave:master'
p1285
sg12
I32202720
sg13
g14
sg15
S'closed'
p1286
sg17
g18
sba(i__main__
Pull
p1287
(dp1288
g4
S"Add function 'getVersionLongAsString' which returns the full version:\xe2\x80\xa6"
p1289
sg6
S'35553762'
p1290
sg8
S'561'
p1291
sg10
S'OpenZWave:Issue-352-Security'
p1292
sg12
I32202720
sg13
g14
sg15
S'closed'
p1293
sg17
g18
sba(i__main__
Pull
p1294
(dp1295
g4
S'[RFC] MultiInstanceAssociation support'
p1296
sg6
S'35520908'
p1297
sg8
S'560'
p1298
sg10
S'OpenZWave:Issue-352-Security'
p1299
sg12
I32202720
sg13
g46
sg15
S'closed'
p1300
sg17
g18
sba(i__main__
Pull
p1301
(dp1302
g4
S'Fixed windows build event (winversion.cpp generation)'
p1303
sg6
S'35432840'
p1304
sg8
S'559'
p1305
sg10
S'OpenZWave:master'
p1306
sg12
I32202720
sg13
g14
sg15
S'closed'
p1307
sg17
g18
sba(i__main__
Pull
p1308
(dp1309
g4
S'Issue 352 security'
p1310
sg6
S'35337807'
p1311
sg8
S'555'
p1312
sg10
S'OpenZWave:Issue-352-Security'
p1313
sg12
I32202720
sg13
g14
sg15
S'closed'
p1314
sg17
g18
sba(i__main__
Pull
p1315
(dp1316
g4
S'Reverted and readded changed files'
p1317
sg6
S'35286180'
p1318
sg8
S'554'
p1319
sg10
S'OpenZWave:Issue-352-Security'
p1320
sg12
I32202720
sg13
g14
sg15
S'closed'
p1321
sg17
g18
sba(i__main__
Pull
p1322
(dp1323
g4
S'Issue 352 security - Updated .Net Wrapper and OZWForm to new methods'
p1324
sg6
S'35114433'
p1325
sg8
S'553'
p1326
sg10
S'OpenZWave:Issue-352-Security'
p1327
sg12
I32202720
sg13
g46
sg15
S'closed'
p1328
sg17
g18
sba(i__main__
Pull
p1329
(dp1330
g4
S'Fix : Dotnet GetValueAsDecimal'
p1331
sg6
S'35081001'
p1332
sg8
S'551'
p1333
sg10
S'OpenZWave:master'
p1334
sg12
I32202720
sg13
g46
sg15
S'closed'
p1335
sg17
g18
sba(i__main__
Pull
p1336
(dp1337
g4
S'Patch vision security zd2102 gen5'
p1338
sg6
S'35080603'
p1339
sg8
S'550'
p1340
sg10
S'OpenZWave:master'
p1341
sg12
I32202720
sg13
g14
sg15
S'closed'
p1342
sg17
g18
sba(i__main__
Pull
p1343
(dp1344
g4
S'Update manufacturer_specific.xml'
p1345
sg6
S'34712668'
p1346
sg8
S'549'
p1347
sg10
S'OpenZWave:master'
p1348
sg12
I32202720
sg13
g14
sg15
S'closed'
p1349
sg17
g18
sba(i__main__
Pull
p1350
(dp1351
g4
S'Update pst02-1c.xml'
p1352
sg6
S'34712657'
p1353
sg8
S'548'
p1354
sg10
S'OpenZWave:master'
p1355
sg12
I32202720
sg13
g14
sg15
S'closed'
p1356
sg17
g18
sba(i__main__
Pull
p1357
(dp1358
g4
S'Create pst02-b.xml'
p1359
sg6
S'34712650'
p1360
sg8
S'547'
p1361
sg10
S'OpenZWave:master'
p1362
sg12
I32202720
sg13
g14
sg15
S'closed'
p1363
sg17
g18
sba(i__main__
Pull
p1364
(dp1365
g4
S'Update pst02.xml'
p1366
sg6
S'34712644'
p1367
sg8
S'546'
p1368
sg10
S'OpenZWave:master'
p1369
sg12
I32202720
sg13
g14
sg15
S'closed'
p1370
sg17
g18
sba(i__main__
Pull
p1371
(dp1372
g4
S'add Philio PST02-A 4 in 1 Multi-Sensor'
p1373
sg6
S'34669758'
p1374
sg8
S'545'
p1375
sg10
S'OpenZWave:master'
p1376
sg12
I32202720
sg13
g14
sg15
S'closed'
p1377
sg17
g18
sba(i__main__
Pull
p1378
(dp1379
g4
S'Update recessed_doorsensor.xml'
p1380
sg6
S'34589418'
p1381
sg8
S'542'
p1382
sg10
S'OpenZWave:master'
p1383
sg12
I32202720
sg13
g46
sg15
S'closed'
p1384
sg17
g18
sba(i__main__
Pull
p1385
(dp1386
g4
S'Add swiidIter configuration file'
p1387
sg6
S'34589328'
p1388
sg8
S'541'
p1389
sg10
S'OpenZWave:master'
p1390
sg12
I32202720
sg13
g14
sg15
S'closed'
p1391
sg17
g18
sba(i__main__
Pull
p1392
(dp1393
g4
S'Update manufacturer_specific.xml'
p1394
sg6
S'34559982'
p1395
sg8
S'538'
p1396
sg10
S'OpenZWave:master'
p1397
sg12
I32202720
sg13
g14
sg15
S'closed'
p1398
sg17
g18
sba(i__main__
Pull
p1399
(dp1400
g4
S'Update ses2.xml'
p1401
sg6
S'34548346'
p1402
sg8
S'537'
p1403
sg10
S'OpenZWave:master'
p1404
sg12
I32202720
sg13
g46
sg15
S'closed'
p1405
sg17
g18
sba(i__main__
Pull
p1406
(dp1407
g4
S'Adds new product IDs for Aeon Labs Recessed Door Sensor'
p1408
sg6
S'34140313'
p1409
sg8
S'534'
p1410
sg10
S'OpenZWave:master'
p1411
sg12
I32202720
sg13
g46
sg15
S'closed'
p1412
sg17
g18
sba(i__main__
Pull
p1413
(dp1414
g4
S'Update doorwindow.xml'
p1415
sg6
S'34124586'
p1416
sg8
S'532'
p1417
sg10
S'OpenZWave:master'
p1418
sg12
I32202720
sg13
g46
sg15
S'closed'
p1419
sg17
g18
sba(i__main__
Pull
p1420
(dp1421
g4
S'Update recessed_doorsensor.xml'
p1422
sg6
S'34124556'
p1423
sg8
S'531'
p1424
sg10
S'OpenZWave:master'
p1425
sg12
I32202720
sg13
g46
sg15
S'closed'
p1426
sg17
g18
sba(i__main__
Pull
p1427
(dp1428
g4
S'Update MiniKeypad.xml'
p1429
sg6
S'33837323'
p1430
sg8
S'529'
p1431
sg10
S'OpenZWave:master'
p1432
sg12
I32202720
sg13
g46
sg15
S'closed'
p1433
sg17
g18
sba(i__main__
Pull
p1434
(dp1435
g4
S'Update manufacturer_specific.xml'
p1436
sg6
S'33836559'
p1437
sg8
S'528'
p1438
sg10
S'OpenZWave:master'
p1439
sg12
I32202720
sg13
g46
sg15
S'closed'
p1440
sg17
g18
sba(i__main__
Pull
p1441
(dp1442
g4
S'Create keyfob2.xml'
p1443
sg6
S'33836537'
p1444
sg8
S'527'
p1445
sg10
S'OpenZWave:master'
p1446
sg12
I32202720
sg13
g46
sg15
S'closed'
p1447
sg17
g18
sba(i__main__
Pull
p1448
(dp1449
g4
S'Added some Vitrum Wireless switches and edited gitignore file'
p1450
sg6
S'33758386'
p1451
sg8
S'526'
p1452
sg10
S'OpenZWave:master'
p1453
sg12
I32202720
sg13
g14
sg15
S'closed'
p1454
sg17
g18
sba(i__main__
Pull
p1455
(dp1456
g4
S'config/widom/UBS104.xml: shortened some labels'
p1457
sg6
S'33708916'
p1458
sg8
S'525'
p1459
sg10
S'OpenZWave:master'
p1460
sg12
I32202720
sg13
g14
sg15
S'closed'
p1461
sg17
g18
sba(i__main__
Pull
p1462
(dp1463
g4
S'Non-blocking open() on OS X'
p1464
sg6
S'33632482'
p1465
sg8
S'524'
p1466
sg10
S'OpenZWave:master'
p1467
sg12
I32202720
sg13
g46
sg15
S'closed'
p1468
sg17
g18
sba(i__main__
Pull
p1469
(dp1470
g4
S'Add support for the Dragon Tech In wall dimmer to the open zwave database v3'
p1471
sg6
S'33595806'
p1472
sg8
S'522'
p1473
sg10
S'OpenZWave:master'
p1474
sg12
I32202720
sg13
g14
sg15
S'closed'
p1475
sg17
g18
sba(i__main__
Pull
p1476
(dp1477
g4
S'Aeon labs gen5 configs'
p1478
sg6
S'33457451'
p1479
sg8
S'521'
p1480
sg10
S'OpenZWave:master'
p1481
sg12
I32202720
sg13
g14
sg15
S'closed'
p1482
sg17
g18
sba(i__main__
Pull
p1483
(dp1484
g4
S"When adding node, report success only if haven't already completed the command."
p1485
sg6
S'33139614'
p1486
sg8
S'518'
p1487
sg10
S'OpenZWave:master'
p1488
sg12
I32202720
sg13
g46
sg15
S'closed'
p1489
sg17
g18
sba(i__main__
Pull
p1490
(dp1491
g4
S'Patch Aeon Labs DSD31 Siren Gen5'
p1492
sg6
S'33127862'
p1493
sg8
S'517'
p1494
sg10
S'OpenZWave:master'
p1495
sg12
I32202720
sg13
g46
sg15
S'closed'
p1496
sg17
g18
sba(i__main__
Pull
p1497
(dp1498
g4
S'Patch for Philio pst02-1c'
p1499
sg6
S'33127759'
p1500
sg8
S'516'
p1501
sg10
S'OpenZWave:master'
p1502
sg12
I32202720
sg13
g46
sg15
S'closed'
p1503
sg17
g18
sba(i__main__
Pull
p1504
(dp1505
g4
S'Added full configuration file for wiDom UBS104 Universal Relay Switch'
p1506
sg6
S'33127477'
p1507
sg8
S'515'
p1508
sg10
S'OpenZWave:master'
p1509
sg12
I32202720
sg13
g46
sg15
S'closed'
p1510
sg17
g18
sba(i__main__
Pull
p1511
(dp1512
g4
S'Added full configuration file for wiDom UBS104 Universal Relay Switch'
p1513
sg6
S'33126619'
p1514
sg8
S'514'
p1515
sg10
S'OpenZWave:master'
p1516
sg12
I32202720
sg13
g46
sg15
S'closed'
p1517
sg17
g18
sba(i__main__
Pull
p1518
(dp1519
g4
S'Fix for CPU-spinning on device disconnection'
p1520
sg6
S'33119326'
p1521
sg8
S'513'
p1522
sg10
S'OpenZWave:master'
p1523
sg12
I32202720
sg13
g46
sg15
S'open'
p1524
sg17
g18
sba(i__main__
Pull
p1525
(dp1526
g4
S'Add support for the Dragon Tech In wall dimmer to the open zwave database'
p1527
sg6
S'33072773'
p1528
sg8
S'512'
p1529
sg10
S'OpenZWave:master'
p1530
sg12
I32202720
sg13
g46
sg15
S'closed'
p1531
sg17
g18
sba(i__main__
Pull
p1532
(dp1533
g4
S'Update fgfs101.xml association group 3'
p1534
sg6
S'32758867'
p1535
sg8
S'508'
p1536
sg10
S'OpenZWave:master'
p1537
sg12
I32202720
sg13
g46
sg15
S'closed'
p1538
sg17
g18
sba(i__main__
Pull
p1539
(dp1540
g4
S'Add support for Dragon Tech In wall dimmer to the database'
p1541
sg6
S'32730597'
p1542
sg8
S'507'
p1543
sg10
S'OpenZWave:master'
p1544
sg12
I32202720
sg13
g46
sg15
S'closed'
p1545
sg17
g18
sba(i__main__
Pull
p1546
(dp1547
g4
S'ValueShort: use short iso byte'
p1548
sg6
S'32687439'
p1549
sg8
S'506'
p1550
sg10
S'OpenZWave:master'
p1551
sg12
I32202720
sg13
g46
sg15
S'closed'
p1552
sg17
g18
sba(i__main__
Pull
p1553
(dp1554
g4
S'implemented CRC16Encap support'
p1555
sg6
S'32680865'
p1556
sg8
S'504'
p1557
sg10
S'OpenZWave:master'
p1558
sg12
I32202720
sg13
g14
sg15
S'closed'
p1559
sg17
g18
sba(i__main__
Pull
p1560
(dp1561
g4
S'Update fgk001.xml'
p1562
sg6
S'32635180'
p1563
sg8
S'500'
p1564
sg10
S'OpenZWave:master'
p1565
sg12
I32202720
sg13
g46
sg15
S'open'
p1566
sg17
g18
sba(i__main__
Pull
p1567
(dp1568
g4
S'Add Aeon-Labs Z-Sticks Gen5'
p1569
sg6
S'32277642'
p1570
sg8
S'496'
p1571
sg10
S'OpenZWave:master'
p1572
sg12
I32202720
sg13
g46
sg15
S'closed'
p1573
sg17
g18
sba(i__main__
Pull
p1574
(dp1575
g4
S'Update manufacturer_specific.xml'
p1576
sg6
S'32270117'
p1577
sg8
S'495'
p1578
sg10
S'OpenZWave:master'
p1579
sg12
I32202720
sg13
g46
sg15
S'closed'
p1580
sg17
g18
sba(i__main__
Pull
p1581
(dp1582
g4
S'adjust spelling of receive'
p1583
sg6
S'32249302'
p1584
sg8
S'494'
p1585
sg10
S'OpenZWave:master'
p1586
sg12
I32202720
sg13
g46
sg15
S'open'
p1587
sg17
g18
sba(i__main__
Pull
p1588
(dp1589
g4
S'Create ses5g.xml'
p1590
sg6
S'31678184'
p1591
sg8
S'491'
p1592
sg10
S'OpenZWave:master'
p1593
sg12
I32202720
sg13
g46
sg15
S'closed'
p1594
sg17
g18
sba(i__main__
Pull
p1595
(dp1596
g4
S'Add additional GE light switch'
p1597
sg6
S'31675748'
p1598
sg8
S'489'
p1599
sg10
S'OpenZWave:master'
p1600
sg12
I32202720
sg13
g46
sg15
S'closed'
p1601
sg17
g18
sba(i__main__
Pull
p1602
(dp1603
g4
S'unix LogImpl: ensure pFile is NULL if no filename was given'
p1604
sg6
S'31671882'
p1605
sg8
S'488'
p1606
sg10
S'OpenZWave:master'
p1607
sg12
I32202720
sg13
g14
sg15
S'closed'
p1608
sg17
g18
sba(i__main__
Pull
p1609
(dp1610
g4
S'Update fgs221.xml'
p1611
sg6
S'31600875'
p1612
sg8
S'487'
p1613
sg10
S'OpenZWave:master'
p1614
sg12
I32202720
sg13
g14
sg15
S'closed'
p1615
sg17
g18
sba(i__main__
Pull
p1616
(dp1617
g4
S'Update fgs211.xml'
p1618
sg6
S'31600759'
p1619
sg8
S'486'
p1620
sg10
S'OpenZWave:master'
p1621
sg12
I32202720
sg13
g14
sg15
S'closed'
p1622
sg17
g18
sba(i__main__
Pull
p1623
(dp1624
g4
S'Fix for issue 462'
p1625
sg6
S'31445538'
p1626
sg8
S'480'
p1627
sg10
S'OpenZWave:master'
p1628
sg12
I32202720
sg13
g14
sg15
S'closed'
p1629
sg17
g18
sba.